(dp1
S'session'
p2
(dp3
S'state'
p4
(dp5
S'redirect'
p6
S'https://localhost:8000/fhir-app/'
p7
sS'launch_token'
p8
NsS'app_secret'
p9
NsS'app_id'
p10
S'7480fd97-ec1a-4ed2-9c81-aaa41381b401'
p11
sS'server'
p12
(dp13
S'base_uri'
p14
S'https://open-ic.epic.com/argonaut/api/FHIR/Argonaut/'
p15
sS'auth_type'
p16
S'oauth2'
p17
sS'auth'
p18
(dp19
S'aud'
p20
g15
sS'token_uri'
p21
Vhttps://open-ic.epic.com/Argonaut/oauth2/token
p22
sg10
g11
sS'authorize_uri'
p23
Vhttps://open-ic.epic.com/Argonaut/oauth2/authorize
p24
sS'redirect_uri'
p25
g7
sS'registration_uri'
p26
NsS'auth_state'
p27
S'6ccdb280'
p28
sssS'launch_context'
p29
NsS'scope'
p30
S'launch launch/patient user/*.* patient/*.read openid profile'
p31
sS'patient_id'
p32
NssS'_accessed_time'
p33
F1588348247.6015389
sS'_creation_time'
p34
F1588346845.5458629
ss.