(dp1
S'session'
p2
(dp3
S'state'
p4
(dp5
S'redirect'
p6
S'https://localhost:8000/fhir-app/'
p7
sS'launch_token'
p8
NsS'app_secret'
p9
NsS'app_id'
p10
S'7480fd97-ec1a-4ed2-9c81-aaa41381b401'
p11
sS'server'
p12
(dp13
S'base_uri'
p14
S'https://open-ic.epic.com/argonaut/api/FHIR/Argonaut/'
p15
sS'auth_type'
p16
S'oauth2'
p17
sS'auth'
p18
(dp19
S'aud'
p20
g15
sS'access_token'
p21
VbQqxeSP9mUqR5OKo2Arml_2YAzHxYuMimq_RI2vocu8c4OyylF5QhHskuBIAYq-WjT3gHe7JACvUWJzC85YllKUt19OBILGsPCqcsV_RAnF6pR0glXyfzIfjzik7hMhv
p22
sS'token_uri'
p23
Vhttps://open-ic.epic.com/Argonaut/oauth2/token
p24
sg10
g11
sS'authorize_uri'
p25
Vhttps://open-ic.epic.com/Argonaut/oauth2/authorize
p26
sS'redirect_uri'
p27
g7
sS'registration_uri'
p28
NsS'auth_state'
p29
S'5dc4a51b'
p30
sssS'launch_context'
p31
(dp32
Vtoken_type
p33
Vbearer
p34
sVscope
p35
VALLERGYINTOLERANCE.READ ALLERGYINTOLERANCE.SEARCH BINARY.READ CAREPLAN.READ CAREPLAN.SEARCH CONDITION.READ CONDITION.SEARCH DEVICE.READ DEVICE.SEARCH DIAGNOSTICREPORT.READ DIAGNOSTICREPORT.SEARCH DOCUMENTREFERENCE.READ DOCUMENTREFERENCE.SEARCH GOAL.READ GOAL.SEARCH IMMUNIZATION.READ IMMUNIZATION.SEARCH MEDICATION.READ MEDICATION.SEARCH MEDICATIONORDER.READ MEDICATIONORDER.SEARCH MEDICATIONSTATEMENT.READ MEDICATIONSTATEMENT.SEARCH OBSERVATION.READ OBSERVATION.SEARCH PATIENT.READ PATIENT.SEARCH PRACTITIONER.READ PRACTITIONER.SEARCH PROCEDURE.READ PROCEDURE.SEARCH 
p36
sVstate
p37
V5dc4a51b
p38
sVpatient
p39
VTbt3KuCY0B5PSrJvCu2j-PlK.aiHsu2xUjUM8bWpetXoB
p40
ssS'scope'
p41
S'launch launch/patient user/*.* patient/*.read openid profile'
p42
sS'patient_id'
p43
g40
ssS'_accessed_time'
p44
F1581697707.9594719
sS'_creation_time'
p45
F1581697329.1040239
ss.