(dp1
S'session'
p2
(dp3
S'state'
p4
(dp5
S'redirect'
p6
S'https://localhost:8000/fhir-app/'
p7
sS'launch_token'
p8
NsS'app_secret'
p9
NsS'app_id'
p10
S'1e5daf87-66e1-4712-ae52-292b421a69a7'
p11
sS'server'
p12
(dp13
S'base_uri'
p14
S'https://uscdi.epic.com/interconnect-uscdi-oauth/api/FHIR/DSTU2/'
p15
sS'auth_type'
p16
S'oauth2'
p17
sS'auth'
p18
(dp19
S'aud'
p20
g15
sS'token_uri'
p21
Vhttps://uscdi.epic.com/Interconnect-uscdi-oauth/oauth2/token
p22
sg10
g11
sS'authorize_uri'
p23
Vhttps://uscdi.epic.com/Interconnect-uscdi-oauth/oauth2/authorize
p24
sS'redirect_uri'
p25
g7
sS'registration_uri'
p26
NsS'auth_state'
p27
S'58105df3'
p28
sssS'launch_context'
p29
NsS'scope'
p30
S'launch launch/patient user/*.* patient/*.read openid profile'
p31
sS'patient_id'
p32
NssS'_accessed_time'
p33
F1588348586.0018151
sS'_creation_time'
p34
F1588347830.7920229
ss.