(dp1
S'session'
p2
(dp3
S'state'
p4
(dp5
S'redirect'
p6
S'https://localhost:8000/fhir-app/'
p7
sS'launch_context'
p8
NsS'launch_token'
p9
NsS'scope'
p10
S'launch launch/patient user/*.* patient/*.read openid profile'
p11
sS'app_secret'
p12
NsS'server'
p13
(dp14
S'base_uri'
p15
S'https://uscdi.epic.com/interconnect-uscdi-oauth/api/FHIR/DSTU2/'
p16
sS'auth_type'
p17
S'oauth2'
p18
sS'auth'
p19
(dp20
S'aud'
p21
g16
sS'token_uri'
p22
Vhttps://uscdi.epic.com/Interconnect-uscdi-oauth/oauth2/token
p23
sS'app_id'
p24
S'1e5daf87-66e1-4712-ae52-292b421a69a7'
p25
sS'authorize_uri'
p26
Vhttps://uscdi.epic.com/Interconnect-uscdi-oauth/oauth2/authorize
p27
sS'redirect_uri'
p28
g7
sS'registration_uri'
p29
NsS'auth_state'
p30
S'6bb16e0c'
p31
sssg24
g25
sS'patient_id'
p32
NssS'_accessed_time'
p33
F1588352338.0406621
sS'_creation_time'
p34
F1588352338.0406621
ss.