(dp1
S'session'
p2
(dp3
S'state'
p4
(dp5
S'redirect'
p6
S'https://localhost:8000/fhir-app/'
p7
sS'launch_context'
p8
NsS'launch_token'
p9
NsS'scope'
p10
S'launch launch/patient user/*.* patient/*.read openid profile'
p11
sS'app_secret'
p12
NsS'server'
p13
(dp14
S'base_uri'
p15
S'https://open-ic.epic.com/argonaut/api/FHIR/Argonaut/'
p16
sS'auth_type'
p17
S'oauth2'
p18
sS'auth'
p19
(dp20
S'aud'
p21
g16
sS'token_uri'
p22
Vhttps://open-ic.epic.com/Argonaut/oauth2/token
p23
sS'app_id'
p24
S'7480fd97-ec1a-4ed2-9c81-aaa41381b401'
p25
sS'authorize_uri'
p26
Vhttps://open-ic.epic.com/Argonaut/oauth2/authorize
p27
sS'redirect_uri'
p28
g7
sS'registration_uri'
p29
NsS'auth_state'
p30
S'35393cc4'
p31
sssg24
g25
sS'patient_id'
p32
NssS'_accessed_time'
p33
F1581614892.482873
sS'_creation_time'
p34
F1581614892.482873
ss.