(dp1
S'session'
p2
(dp3
S'state'
p4
(dp5
S'redirect'
p6
S'https://localhost:8000/fhir-app/'
p7
sS'launch_token'
p8
NsS'app_secret'
p9
NsS'app_id'
p10
S'1e5daf87-66e1-4712-ae52-292b421a69a7'
p11
sS'server'
p12
(dp13
S'base_uri'
p14
S'https://uscdi.epic.com/interconnect-uscdi-oauth/api/FHIR/DSTU2/'
p15
sS'auth_type'
p16
S'oauth2'
p17
sS'auth'
p18
(dp19
S'aud'
p20
g15
sS'access_token'
p21
VEdjqxzTO1VMfsKbRdiRSOoMc_VQJIelwWl0yzRYFGtEedHl8iZSj6NPIUKVhm1lguKbz8S6Yn6WatDuLMsiPjJgVL6JoLXhsJd3ni9mHwA0lioa7fmaie-x7Y59ZZTQu
p22
sS'token_uri'
p23
Vhttps://uscdi.epic.com/Interconnect-uscdi-oauth/oauth2/token
p24
sg10
g11
sS'authorize_uri'
p25
Vhttps://uscdi.epic.com/Interconnect-uscdi-oauth/oauth2/authorize
p26
sS'redirect_uri'
p27
g7
sS'registration_uri'
p28
NsS'auth_state'
p29
S'b7d9f12a'
p30
sssS'launch_context'
p31
(dp32
Vtoken_type
p33
Vbearer
p34
sVscope
p35
VALLERGYINTOLERANCE.READ ALLERGYINTOLERANCE.SEARCH CAREPLAN.READ CAREPLAN.SEARCH Condition.read Condition.search DEVICE.READ DEVICE.SEARCH DIAGNOSTICREPORT.READ DIAGNOSTICREPORT.SEARCH GOAL.READ GOAL.SEARCH IMMUNIZATION.READ IMMUNIZATION.SEARCH MEDICATION.READ MEDICATIONORDER.READ MEDICATIONORDER.SEARCH Observation.read OBSERVATION.SEARCH Patient.read Patient.search PROCEDURE.READ PROCEDURE.SEARCH MEDICATIONSTATEMENT.READ MEDICATIONSTATEMENT.SEARCH Observation.Read (Smoking History) Observation.Search (Smoking History) Observation.Read (Vitals) Observation.Search (Vitals) AllergyIntolerance.Read (STU3) AllergyIntolerance.Search (STU3) Condition.Read (STU3) Condition.Search (STU3) Introspect Medication.Read (STU3) MedicationRequest.Read (STU3) MedicationRequest.Search (STU3) MedicationStatement.Read (STU3) MedicationStatement.Search (STU3) MEDICATION.SEARCH Patient.Read (STU3) Binary.Read (STU3) DiagnosticReport.Read (STU3) DiagnosticReport.Search (STU3) DocumentReference.Read (Clinical Notes) (STU3) DocumentReference.Search (Clinical Notes) (STU3) Goal.Read (STU3) Patient.Search (STU3)
p36
sVstate
p37
Vb7d9f12a
p38
ssS'scope'
p39
S'launch launch/patient user/*.* patient/*.read openid profile'
p40
sS'patient_id'
p41
NssS'_accessed_time'
p42
F1588348597.8525159
sS'_creation_time'
p43
F1588347842.2110591
ss.